target datalayout = "e-m:e-p270:32:32-p271:32:32-p272:64:64-i64:64-i128:128-f80:128-n8:16:32:64-S128"
target triple = "x86_64-pc-linux-gnu"

%struct.archive_read_disk = type { %struct.archive, ptr, i8, i8, ptr, ptr, ptr, ptr, i32, ptr, ptr, ptr, ptr, ptr, ptr, ptr, ptr, ptr, ptr, ptr }
%struct.archive = type { i32, i32, ptr, i32, ptr, i32, i32, ptr, %struct.archive_string, ptr, i32, i32, ptr, ptr, i64, i64, i64, i8, i64 }
%struct.archive_string = type { ptr, i64, i64 }
%struct.tree = type { ptr, ptr, ptr, ptr, i32, i32, i32, %struct.archive_string, ptr, i64, i32, i32, i32, i32, i32, %struct.stat, %struct.stat, i32, i32, %struct.restore_time, ptr, ptr, i32, i32, i8, i8, ptr, ptr, i32, i32, i32, i32, i32, i32, i64, i64, ptr, i64 }
%struct.stat = type { i64, i64, i64, i32, i32, i32, i32, i64, i64, i64, i64, %struct.timespec, %struct.timespec, %struct.timespec, [3 x i64] }
%struct.timespec = type { i64, i64 }
%struct.restore_time = type { ptr, i64, i64, i64, i64, i32, i32 }
%struct.filesystem = type { i64, i32, i32, i32, i64, i64, i64, i64, ptr, ptr, i64 }

@.str.19 = private unnamed_addr constant [18 x i8] c"archive_read_free\00", align 1

; Function Attrs: nounwind uwtable
define internal void @tree_free(ptr noundef %0) #0 {
  %2 = alloca ptr, align 8
  %3 = alloca i32, align 4
  store ptr %0, ptr %2, align 8
  %4 = load ptr, ptr %2, align 8
  %5 = icmp eq ptr %4, null
  br i1 %5, label %6, label %7

6:                                                ; preds = %1
  br label %36

7:                                                ; preds = %1
  %8 = load ptr, ptr %2, align 8
  %9 = getelementptr inbounds %struct.tree, ptr %8, i32 0, i32 7
  call void @archive_string_free(ptr noundef %9)
  %10 = load ptr, ptr %2, align 8
  %11 = getelementptr inbounds %struct.tree, ptr %10, i32 0, i32 20
  %12 = load ptr, ptr %11, align 8
  call void @free(ptr noundef %12) #10
  store i32 0, ptr %3, align 4
  br label %13

13:                                               ; preds = %28, %7
  %14 = load i32, ptr %3, align 4
  %15 = load ptr, ptr %2, align 8
  %16 = getelementptr inbounds %struct.tree, ptr %15, i32 0, i32 30
  %17 = load i32, ptr %16, align 8
  %18 = icmp slt i32 %14, %17
  br i1 %18, label %19, label %31

19:                                               ; preds = %13
  %20 = load ptr, ptr %2, align 8
  %21 = getelementptr inbounds %struct.tree, ptr %20, i32 0, i32 27
  %22 = load ptr, ptr %21, align 8
  %23 = load i32, ptr %3, align 4
  %24 = sext i32 %23 to i64
  %25 = getelementptr inbounds %struct.filesystem, ptr %22, i64 %24
  %26 = getelementptr inbounds %struct.filesystem, ptr %25, i32 0, i32 8
  %27 = load ptr, ptr %26, align 8
  call void @free(ptr noundef %27) #10
  br label %28

28:                                               ; preds = %19
  %29 = load i32, ptr %3, align 4
  %30 = add nsw i32 %29, 1
  store i32 %30, ptr %3, align 4
  br label %13, !llvm.loop !8

31:                                               ; preds = %13
  %32 = load ptr, ptr %2, align 8
  %33 = getelementptr inbounds %struct.tree, ptr %32, i32 0, i32 27
  %34 = load ptr, ptr %33, align 8
  call void @free(ptr noundef %34) #10
  %35 = load ptr, ptr %2, align 8
  call void @free(ptr noundef %35) #10
  br label %36

36:                                               ; preds = %31, %6
  ret void
}

; Function Attrs: nounwind uwtable
define internal i32 @_archive_read_free(ptr noundef %0) #0 {
  %2 = alloca i32, align 4
  %3 = alloca ptr, align 8
  %4 = alloca ptr, align 8
  %5 = alloca i32, align 4
  %6 = alloca i32, align 4
  store ptr %0, ptr %3, align 8
  %7 = load ptr, ptr %3, align 8
  store ptr %7, ptr %4, align 8
  %8 = load ptr, ptr %3, align 8
  %9 = icmp eq ptr %8, null
  br i1 %9, label %10, label %11

10:                                               ; preds = %1
  store i32 0, ptr %2, align 4
  br label %82

11:                                               ; preds = %1
  br label %12

12:                                               ; preds = %11
  %13 = load ptr, ptr %3, align 8
  %14 = call i32 @__archive_check_magic(ptr noundef %13, i32 noundef 195932357, i32 noundef 65535, ptr noundef @.str.19)
  store i32 %14, ptr %6, align 4
  %15 = load i32, ptr %6, align 4
  %16 = icmp eq i32 %15, -30
  br i1 %16, label %17, label %18

17:                                               ; preds = %12
  store i32 -30, ptr %2, align 4
  br label %82

18:                                               ; preds = %12
  br label %19

19:                                               ; preds = %18
  %20 = load ptr, ptr %4, align 8
  %21 = getelementptr inbounds %struct.archive_read_disk, ptr %20, i32 0, i32 0
  %22 = getelementptr inbounds %struct.archive, ptr %21, i32 0, i32 1
  %23 = load i32, ptr %22, align 4
  %24 = icmp ne i32 %23, 32
  br i1 %24, label %25, label %29

25:                                               ; preds = %19
  %26 = load ptr, ptr %4, align 8
  %27 = getelementptr inbounds %struct.archive_read_disk, ptr %26, i32 0, i32 0
  %28 = call i32 @_archive_read_close(ptr noundef %27)
  store i32 %28, ptr %5, align 4
  br label %30

29:                                               ; preds = %19
  store i32 0, ptr %5, align 4
  br label %30

30:                                               ; preds = %29, %25
  %31 = load ptr, ptr %4, align 8
  %32 = getelementptr inbounds %struct.archive_read_disk, ptr %31, i32 0, i32 4
  %33 = load ptr, ptr %32, align 8
  call void @tree_free(ptr noundef %33)
  %34 = load ptr, ptr %4, align 8
  %35 = getelementptr inbounds %struct.archive_read_disk, ptr %34, i32 0, i32 10
  %36 = load ptr, ptr %35, align 8
  %37 = icmp ne ptr %36, null
  br i1 %37, label %38, label %50

38:                                               ; preds = %30
  %39 = load ptr, ptr %4, align 8
  %40 = getelementptr inbounds %struct.archive_read_disk, ptr %39, i32 0, i32 11
  %41 = load ptr, ptr %40, align 8
  %42 = icmp ne ptr %41, null
  br i1 %42, label %43, label %50

43:                                               ; preds = %38
  %44 = load ptr, ptr %4, align 8
  %45 = getelementptr inbounds %struct.archive_read_disk, ptr %44, i32 0, i32 10
  %46 = load ptr, ptr %45, align 8
  %47 = load ptr, ptr %4, align 8
  %48 = getelementptr inbounds %struct.archive_read_disk, ptr %47, i32 0, i32 11
  %49 = load ptr, ptr %48, align 8
  call void %46(ptr noundef %49)
  br label %50

50:                                               ; preds = %43, %38, %30
  %51 = load ptr, ptr %4, align 8
  %52 = getelementptr inbounds %struct.archive_read_disk, ptr %51, i32 0, i32 13
  %53 = load ptr, ptr %52, align 8
  %54 = icmp ne ptr %53, null
  br i1 %54, label %55, label %67

55:                                               ; preds = %50
  %56 = load ptr, ptr %4, align 8
  %57 = getelementptr inbounds %struct.archive_read_disk, ptr %56, i32 0, i32 14
  %58 = load ptr, ptr %57, align 8
  %59 = icmp ne ptr %58, null
  br i1 %59, label %60, label %67

60:                                               ; preds = %55
  %61 = load ptr, ptr %4, align 8
  %62 = getelementptr inbounds %struct.archive_read_disk, ptr %61, i32 0, i32 13
  %63 = load ptr, ptr %62, align 8
  %64 = load ptr, ptr %4, align 8
  %65 = getelementptr inbounds %struct.archive_read_disk, ptr %64, i32 0, i32 14
  %66 = load ptr, ptr %65, align 8
  call void %63(ptr noundef %66)
  br label %67

67:                                               ; preds = %60, %55, %50
  %68 = load ptr, ptr %4, align 8
  %69 = getelementptr inbounds %struct.archive_read_disk, ptr %68, i32 0, i32 0
  %70 = getelementptr inbounds %struct.archive, ptr %69, i32 0, i32 8
  call void @archive_string_free(ptr noundef %70)
  %71 = load ptr, ptr %4, align 8
  %72 = getelementptr inbounds %struct.archive_read_disk, ptr %71, i32 0, i32 1
  %73 = load ptr, ptr %72, align 8
  call void @archive_entry_free(ptr noundef %73)
  %74 = load ptr, ptr %4, align 8
  %75 = getelementptr inbounds %struct.archive_read_disk, ptr %74, i32 0, i32 0
  %76 = getelementptr inbounds %struct.archive, ptr %75, i32 0, i32 0
  store i32 0, ptr %76, align 8
  %77 = load ptr, ptr %4, align 8
  %78 = getelementptr inbounds %struct.archive_read_disk, ptr %77, i32 0, i32 0
  %79 = call i32 @__archive_clean(ptr noundef %78)
  %80 = load ptr, ptr %4, align 8
  call void @free(ptr noundef %80) #10
  %81 = load i32, ptr %5, align 4
  store i32 %81, ptr %2, align 4
  br label %82

82:                                               ; preds = %67, %17, %10
  %83 = load i32, ptr %2, align 4
  ret i32 %83
}