; Function Attrs: nounwind uwtable
define internal range(i32 -30, 1) i32 @_archive_read_free(ptr noundef %0) #0 {
  %2 = icmp eq ptr %0, null
  br i1 %2, label %50, label %3

3:                                                ; preds = %1
  %4 = tail call i32 @__archive_check_magic(ptr noundef nonnull %0, i32 noundef 195932357, i32 noundef 65535, ptr noundef nonnull @.str.19) #17
  %5 = icmp eq i32 %4, -30
  br i1 %5, label %50, label %6

6:                                                ; preds = %3
  %7 = getelementptr inbounds nuw i8, ptr %0, i64 4
  %8 = load i32, ptr %7, align 4
  %.not = icmp eq i32 %8, 32
  br i1 %.not, label %11, label %9

9:                                                ; preds = %6
  %10 = tail call i32 @_archive_read_close(ptr noundef nonnull %0)
  br label %11

11:                                               ; preds = %6, %9
  %.021 = phi i32 [ %10, %9 ], [ 0, %6 ]
  %12 = getelementptr inbounds nuw i8, ptr %0, i64 160
  %13 = load ptr, ptr %12, align 8
  %14 = icmp eq ptr %13, null
  br i1 %14, label %tree_free.exit, label %15

15:                                               ; preds = %11
  %16 = getelementptr inbounds nuw i8, ptr %13, i64 48
  tail call void @archive_string_free(ptr noundef nonnull %16) #17
  %17 = getelementptr inbounds nuw i8, ptr %13, i64 456
  %18 = load ptr, ptr %17, align 8
  tail call void @free(ptr noundef %18) #17
  %19 = getelementptr inbounds nuw i8, ptr %13, i64 512
  %20 = load i32, ptr %19, align 8
  %21 = icmp sgt i32 %20, 0
  br i1 %21, label %.lr.ph.i, label %._crit_edge.i

.lr.ph.i:                                         ; preds = %15
  %22 = getelementptr inbounds nuw i8, ptr %13, i64 496
  br label %23

23:                                               ; preds = %23, %.lr.ph.i
  %indvars.iv.i = phi i64 [ 0, %.lr.ph.i ], [ %indvars.iv.next.i, %23 ]
  %24 = load ptr, ptr %22, align 8
  %25 = getelementptr inbounds nuw %struct.filesystem, ptr %24, i64 %indvars.iv.i, i32 8
  %26 = load ptr, ptr %25, align 8
  tail call void @free(ptr noundef %26) #17
  %indvars.iv.next.i = add nuw nsw i64 %indvars.iv.i, 1
  %27 = load i32, ptr %19, align 8
  %28 = sext i32 %27 to i64
  %29 = icmp slt i64 %indvars.iv.next.i, %28
  br i1 %29, label %23, label %._crit_edge.i, !llvm.loop !8

._crit_edge.i:                                    ; preds = %23, %15
  %30 = getelementptr inbounds nuw i8, ptr %13, i64 496
  %31 = load ptr, ptr %30, align 8
  tail call void @free(ptr noundef %31) #17
  tail call void @free(ptr noundef nonnull %13) #17
  br label %tree_free.exit

tree_free.exit:                                   ; preds = %11, %._crit_edge.i
  %32 = getelementptr inbounds nuw i8, ptr %0, i64 208
  %33 = load ptr, ptr %32, align 8
  %.not27 = icmp eq ptr %33, null
  br i1 %.not27, label %38, label %34

34:                                               ; preds = %tree_free.exit
  %35 = getelementptr inbounds nuw i8, ptr %0, i64 216
  %36 = load ptr, ptr %35, align 8
  %.not28 = icmp eq ptr %36, null
  br i1 %.not28, label %38, label %37

37:                                               ; preds = %34
  tail call void %33(ptr noundef nonnull %36) #17
  br label %38

38:                                               ; preds = %37, %34, %tree_free.exit
  %39 = getelementptr inbounds nuw i8, ptr %0, i64 232
  %40 = load ptr, ptr %39, align 8
  %.not29 = icmp eq ptr %40, null
  br i1 %.not29, label %45, label %41

41:                                               ; preds = %38
  %42 = getelementptr inbounds nuw i8, ptr %0, i64 240
  %43 = load ptr, ptr %42, align 8
  %.not30 = icmp eq ptr %43, null
  br i1 %.not30, label %45, label %44

44:                                               ; preds = %41
  tail call void %40(ptr noundef nonnull %43) #17
  br label %45

45:                                               ; preds = %44, %41, %38
  %46 = getelementptr inbounds nuw i8, ptr %0, i64 48
  tail call void @archive_string_free(ptr noundef nonnull %46) #17
  %47 = getelementptr inbounds nuw i8, ptr %0, i64 144
  %48 = load ptr, ptr %47, align 8
  tail call void @archive_entry_free(ptr noundef %48) #17
  store i32 0, ptr %0, align 8
  %49 = tail call i32 @__archive_clean(ptr noundef nonnull %0) #17
  tail call void @free(ptr noundef nonnull %0) #17
  br label %50

50:                                               ; preds = %3, %1, %45
  %.0 = phi i32 [ %.021, %45 ], [ 0, %1 ], [ -30, %3 ]
  ret i32 %.0
}